; Function Attrs: mustprogress nounwind uwtable
define internal void @_ZN12_GLOBAL__N_118AArch64ELFStreamerD2Ev(ptr noundef nonnull align 8 dereferenceable(6637) %0) unnamed_addr #0 align 2 {
  store ptr getelementptr inbounds inrange(-16, 1336) (i8, ptr @_ZTVN12_GLOBAL__N_118AArch64ELFStreamerE, i64 16), ptr %0, align 8
  %2 = getelementptr inbounds nuw i8, ptr %0, i64 6608
  %.val = load ptr, ptr %2, align 8
  %3 = getelementptr inbounds i8, ptr %0, i64 6624
  %.val1 = load i32, ptr %3, align 8
  %4 = zext i32 %.val1 to i64
  %5 = shl nuw nsw i64 %4, 4
  tail call void @_ZN4llvm17deallocate_bufferEPvmm(ptr noundef %.val, i64 noundef %5, i64 noundef 8) #12
  tail call void @_ZN4llvm13MCELFStreamerD2Ev(ptr noundef nonnull align 8 dereferenceable(6601) %0) #12
  ret void
}